target datalayout = "e-m:e-p270:32:32-p271:32:32-p272:64:64-i64:64-i128:128-f80:128-n8:16:32:64-S128"
target triple = "x86_64-pc-linux-gnu"

%"struct.llvm::rdf::NodeBase" = type { i16, i16, i32, %union.anon }
%union.anon = type { %"struct.llvm::rdf::NodeBase::Ref_struct" }
%"struct.llvm::rdf::NodeBase::Ref_struct" = type { i32, i32, %union.anon.60, %union.anon.61 }
%union.anon.60 = type { %"struct.llvm::rdf::NodeBase::Def_struct" }
%"struct.llvm::rdf::NodeBase::Def_struct" = type { i32, i32 }
%union.anon.61 = type { ptr }
%"struct.llvm::rdf::NodeAddr.62" = type <{ ptr, i32, [4 x i8] }>
%"struct.llvm::rdf::Print.64" = type { ptr, ptr }
%"struct.llvm::rdf::NodeAddr.65" = type <{ ptr, i32, [4 x i8] }>
%"struct.llvm::rdf::Print.67" = type { ptr, ptr }
%"struct.llvm::rdf::NodeAddr.68" = type <{ ptr, i32, [4 x i8] }>
%"struct.llvm::rdf::Print.70" = type { ptr, ptr }
%"struct.llvm::rdf::NodeAddr.71" = type <{ ptr, i32, [4 x i8] }>
%"struct.llvm::rdf::PrintNode" = type { %"struct.llvm::rdf::Print.64" }
%"struct.llvm::rdf::PrintNode.74" = type { %"struct.llvm::rdf::Print.70" }
%"struct.llvm::rdf::PrintNode.75" = type { %"struct.llvm::rdf::Print.67" }
%"struct.llvm::rdf::Print.73" = type { ptr, ptr }

; Function Attrs: mustprogress nounwind uwtable
define linkonce_odr hidden void @_ZN4llvm3rdf5PrintINS0_8NodeAddrIPNS0_7UseNodeEEEEC2ERKS5_RKNS0_13DataFlowGraphE(ptr noundef nonnull align 8 dereferenceable(16) %0, ptr noundef nonnull align 8 dereferenceable(12) %1, ptr noundef nonnull align 8 dereferenceable(736) %2) unnamed_addr #0 comdat align 2 {
  %4 = alloca ptr, align 8
  %5 = alloca ptr, align 8
  %6 = alloca ptr, align 8
  store ptr %0, ptr %4, align 8
  store ptr %1, ptr %5, align 8
  store ptr %2, ptr %6, align 8
  %7 = load ptr, ptr %4, align 8
  %8 = getelementptr inbounds nuw %"struct.llvm::rdf::Print.67", ptr %7, i32 0, i32 0
  %9 = load ptr, ptr %5, align 8
  store ptr %9, ptr %8, align 8
  %10 = getelementptr inbounds nuw %"struct.llvm::rdf::Print.67", ptr %7, i32 0, i32 1
  %11 = load ptr, ptr %6, align 8
  store ptr %11, ptr %10, align 8
  ret void
}

; Function Attrs: mustprogress nounwind uwtable
define linkonce_odr hidden void @_ZN4llvm3rdf5PrintINS0_8NodeAddrIPNS0_10PhiUseNodeEEEEC2ERKS5_RKNS0_13DataFlowGraphE(ptr noundef nonnull align 8 dereferenceable(16) %0, ptr noundef nonnull align 8 dereferenceable(12) %1, ptr noundef nonnull align 8 dereferenceable(736) %2) unnamed_addr #0 comdat align 2 {
  %4 = alloca ptr, align 8
  %5 = alloca ptr, align 8
  %6 = alloca ptr, align 8
  store ptr %0, ptr %4, align 8
  store ptr %1, ptr %5, align 8
  store ptr %2, ptr %6, align 8
  %7 = load ptr, ptr %4, align 8
  %8 = getelementptr inbounds nuw %"struct.llvm::rdf::Print.70", ptr %7, i32 0, i32 0
  %9 = load ptr, ptr %5, align 8
  store ptr %9, ptr %8, align 8
  %10 = getelementptr inbounds nuw %"struct.llvm::rdf::Print.70", ptr %7, i32 0, i32 1
  %11 = load ptr, ptr %6, align 8
  store ptr %11, ptr %10, align 8
  ret void
}

; Function Attrs: mustprogress nounwind uwtable
define linkonce_odr hidden noundef zeroext i16 @_ZN4llvm3rdf9NodeAttrs5flagsEt(i16 noundef zeroext %0) #0 comdat align 2 {
  %2 = alloca i16, align 2
  store i16 %0, ptr %2, align 2
  %3 = load i16, ptr %2, align 2
  %4 = zext i16 %3 to i32
  %5 = and i32 %4, 4064
  %6 = trunc i32 %5 to i16
  ret i16 %6
}

; Function Attrs: mustprogress nounwind uwtable
define linkonce_odr hidden void @_ZN4llvm3rdf5PrintINS0_8NodeAddrIPNS0_7DefNodeEEEEC2ERKS5_RKNS0_13DataFlowGraphE(ptr noundef nonnull align 8 dereferenceable(16) %0, ptr noundef nonnull align 8 dereferenceable(12) %1, ptr noundef nonnull align 8 dereferenceable(736) %2) unnamed_addr #0 comdat align 2 {
  %4 = alloca ptr, align 8
  %5 = alloca ptr, align 8
  %6 = alloca ptr, align 8
  store ptr %0, ptr %4, align 8
  store ptr %1, ptr %5, align 8
  store ptr %2, ptr %6, align 8
  %7 = load ptr, ptr %4, align 8
  %8 = getelementptr inbounds nuw %"struct.llvm::rdf::Print.64", ptr %7, i32 0, i32 0
  %9 = load ptr, ptr %5, align 8
  store ptr %9, ptr %8, align 8
  %10 = getelementptr inbounds nuw %"struct.llvm::rdf::Print.64", ptr %7, i32 0, i32 1
  %11 = load ptr, ptr %6, align 8
  store ptr %11, ptr %10, align 8
  ret void
}

; Function Attrs: mustprogress nounwind uwtable
define linkonce_odr hidden noundef zeroext i16 @_ZN4llvm3rdf9NodeAttrs4kindEt(i16 noundef zeroext %0) #0 comdat align 2 {
  %2 = alloca i16, align 2
  store i16 %0, ptr %2, align 2
  %3 = load i16, ptr %2, align 2
  %4 = zext i16 %3 to i32
  %5 = and i32 %4, 28
  %6 = trunc i32 %5 to i16
  ret i16 %6
}

; Function Attrs: mustprogress nounwind uwtable
define linkonce_odr hidden void @_ZN4llvm3rdf9PrintNodeIPNS0_7UseNodeEEC2ERKNS0_8NodeAddrIS3_EERKNS0_13DataFlowGraphE(ptr noundef nonnull align 8 dereferenceable(16) %0, ptr noundef nonnull align 8 dereferenceable(12) %1, ptr noundef nonnull align 8 dereferenceable(736) %2) unnamed_addr #0 comdat align 2 {
  %4 = alloca ptr, align 8
  %5 = alloca ptr, align 8
  %6 = alloca ptr, align 8
  store ptr %0, ptr %4, align 8
  store ptr %1, ptr %5, align 8
  store ptr %2, ptr %6, align 8
  %7 = load ptr, ptr %4, align 8
  %8 = load ptr, ptr %5, align 8
  %9 = load ptr, ptr %6, align 8
  call void @_ZN4llvm3rdf5PrintINS0_8NodeAddrIPNS0_7UseNodeEEEEC2ERKS5_RKNS0_13DataFlowGraphE(ptr noundef nonnull align 8 dereferenceable(16) %7, ptr noundef nonnull align 8 dereferenceable(12) %8, ptr noundef nonnull align 8 dereferenceable(736) %9)
  ret void
}

; Function Attrs: mustprogress nounwind uwtable
define linkonce_odr hidden void @_ZN4llvm3rdf8NodeAddrIPNS0_7UseNodeEEC2IPNS0_7RefNodeEEERKNS1_IT_EE(ptr noundef nonnull align 8 dereferenceable(12) %0, ptr noundef nonnull align 8 dereferenceable(12) %1) unnamed_addr #0 comdat align 2 {
  %3 = alloca ptr, align 8
  %4 = alloca ptr, align 8
  store ptr %0, ptr %3, align 8
  store ptr %1, ptr %4, align 8
  %5 = load ptr, ptr %3, align 8
  %6 = getelementptr inbounds nuw %"struct.llvm::rdf::NodeAddr.68", ptr %5, i32 0, i32 0
  %7 = load ptr, ptr %4, align 8
  %8 = getelementptr inbounds nuw %"struct.llvm::rdf::NodeAddr.62", ptr %7, i32 0, i32 0
  %9 = load ptr, ptr %8, align 8
  store ptr %9, ptr %6, align 8
  %10 = getelementptr inbounds nuw %"struct.llvm::rdf::NodeAddr.68", ptr %5, i32 0, i32 1
  %11 = load ptr, ptr %4, align 8
  %12 = getelementptr inbounds nuw %"struct.llvm::rdf::NodeAddr.62", ptr %11, i32 0, i32 1
  %13 = load i32, ptr %12, align 8
  store i32 %13, ptr %10, align 8
  ret void
}

; Function Attrs: mustprogress nounwind uwtable
define linkonce_odr hidden void @_ZN4llvm3rdf9PrintNodeIPNS0_10PhiUseNodeEEC2ERKNS0_8NodeAddrIS3_EERKNS0_13DataFlowGraphE(ptr noundef nonnull align 8 dereferenceable(16) %0, ptr noundef nonnull align 8 dereferenceable(12) %1, ptr noundef nonnull align 8 dereferenceable(736) %2) unnamed_addr #0 comdat align 2 {
  %4 = alloca ptr, align 8
  %5 = alloca ptr, align 8
  %6 = alloca ptr, align 8
  store ptr %0, ptr %4, align 8
  store ptr %1, ptr %5, align 8
  store ptr %2, ptr %6, align 8
  %7 = load ptr, ptr %4, align 8
  %8 = load ptr, ptr %5, align 8
  %9 = load ptr, ptr %6, align 8
  call void @_ZN4llvm3rdf5PrintINS0_8NodeAddrIPNS0_10PhiUseNodeEEEEC2ERKS5_RKNS0_13DataFlowGraphE(ptr noundef nonnull align 8 dereferenceable(16) %7, ptr noundef nonnull align 8 dereferenceable(12) %8, ptr noundef nonnull align 8 dereferenceable(736) %9)
  ret void
}

; Function Attrs: mustprogress nounwind uwtable
define linkonce_odr hidden void @_ZN4llvm3rdf8NodeAddrIPNS0_10PhiUseNodeEEC2IPNS0_7RefNodeEEERKNS1_IT_EE(ptr noundef nonnull align 8 dereferenceable(12) %0, ptr noundef nonnull align 8 dereferenceable(12) %1) unnamed_addr #0 comdat align 2 {
  %3 = alloca ptr, align 8
  %4 = alloca ptr, align 8
  store ptr %0, ptr %3, align 8
  store ptr %1, ptr %4, align 8
  %5 = load ptr, ptr %3, align 8
  %6 = getelementptr inbounds nuw %"struct.llvm::rdf::NodeAddr.71", ptr %5, i32 0, i32 0
  %7 = load ptr, ptr %4, align 8
  %8 = getelementptr inbounds nuw %"struct.llvm::rdf::NodeAddr.62", ptr %7, i32 0, i32 0
  %9 = load ptr, ptr %8, align 8
  store ptr %9, ptr %6, align 8
  %10 = getelementptr inbounds nuw %"struct.llvm::rdf::NodeAddr.71", ptr %5, i32 0, i32 1
  %11 = load ptr, ptr %4, align 8
  %12 = getelementptr inbounds nuw %"struct.llvm::rdf::NodeAddr.62", ptr %11, i32 0, i32 1
  %13 = load i32, ptr %12, align 8
  store i32 %13, ptr %10, align 8
  ret void
}

; Function Attrs: mustprogress nounwind uwtable
define linkonce_odr hidden noundef zeroext i16 @_ZNK4llvm3rdf8NodeBase8getFlagsEv(ptr noundef nonnull align 8 dereferenceable(32) %0) #0 comdat align 2 {
  %2 = alloca ptr, align 8
  store ptr %0, ptr %2, align 8
  %3 = load ptr, ptr %2, align 8
  %4 = getelementptr inbounds nuw %"struct.llvm::rdf::NodeBase", ptr %3, i32 0, i32 0
  %5 = load i16, ptr %4, align 8
  %6 = call noundef zeroext i16 @_ZN4llvm3rdf9NodeAttrs5flagsEt(i16 noundef zeroext %5)
  ret i16 %6
}

; Function Attrs: mustprogress nounwind uwtable
define linkonce_odr hidden void @_ZN4llvm3rdf9PrintNodeIPNS0_7DefNodeEEC2ERKNS0_8NodeAddrIS3_EERKNS0_13DataFlowGraphE(ptr noundef nonnull align 8 dereferenceable(16) %0, ptr noundef nonnull align 8 dereferenceable(12) %1, ptr noundef nonnull align 8 dereferenceable(736) %2) unnamed_addr #0 comdat align 2 {
  %4 = alloca ptr, align 8
  %5 = alloca ptr, align 8
  %6 = alloca ptr, align 8
  store ptr %0, ptr %4, align 8
  store ptr %1, ptr %5, align 8
  store ptr %2, ptr %6, align 8
  %7 = load ptr, ptr %4, align 8
  %8 = load ptr, ptr %5, align 8
  %9 = load ptr, ptr %6, align 8
  call void @_ZN4llvm3rdf5PrintINS0_8NodeAddrIPNS0_7DefNodeEEEEC2ERKS5_RKNS0_13DataFlowGraphE(ptr noundef nonnull align 8 dereferenceable(16) %7, ptr noundef nonnull align 8 dereferenceable(12) %8, ptr noundef nonnull align 8 dereferenceable(736) %9)
  ret void
}

; Function Attrs: mustprogress nounwind uwtable
define linkonce_odr hidden void @_ZN4llvm3rdf8NodeAddrIPNS0_7DefNodeEEC2IPNS0_7RefNodeEEERKNS1_IT_EE(ptr noundef nonnull align 8 dereferenceable(12) %0, ptr noundef nonnull align 8 dereferenceable(12) %1) unnamed_addr #0 comdat align 2 {
  %3 = alloca ptr, align 8
  %4 = alloca ptr, align 8
  store ptr %0, ptr %3, align 8
  store ptr %1, ptr %4, align 8
  %5 = load ptr, ptr %3, align 8
  %6 = getelementptr inbounds nuw %"struct.llvm::rdf::NodeAddr.65", ptr %5, i32 0, i32 0
  %7 = load ptr, ptr %4, align 8
  %8 = getelementptr inbounds nuw %"struct.llvm::rdf::NodeAddr.62", ptr %7, i32 0, i32 0
  %9 = load ptr, ptr %8, align 8
  store ptr %9, ptr %6, align 8
  %10 = getelementptr inbounds nuw %"struct.llvm::rdf::NodeAddr.65", ptr %5, i32 0, i32 1
  %11 = load ptr, ptr %4, align 8
  %12 = getelementptr inbounds nuw %"struct.llvm::rdf::NodeAddr.62", ptr %11, i32 0, i32 1
  %13 = load i32, ptr %12, align 8
  store i32 %13, ptr %10, align 8
  ret void
}

; Function Attrs: mustprogress nounwind uwtable
define linkonce_odr hidden noundef zeroext i16 @_ZNK4llvm3rdf8NodeBase7getKindEv(ptr noundef nonnull align 8 dereferenceable(32) %0) #0 comdat align 2 {
  %2 = alloca ptr, align 8
  store ptr %0, ptr %2, align 8
  %3 = load ptr, ptr %2, align 8
  %4 = getelementptr inbounds nuw %"struct.llvm::rdf::NodeBase", ptr %3, i32 0, i32 0
  %5 = load i16, ptr %4, align 8
  %6 = call noundef zeroext i16 @_ZN4llvm3rdf9NodeAttrs4kindEt(i16 noundef zeroext %5)
  ret i16 %6
}

; Function Attrs: mustprogress nounwind uwtable
define dso_local noundef nonnull align 8 dereferenceable(48) ptr @_ZN4llvm3rdflsERNS_11raw_ostreamERKNS0_5PrintINS0_8NodeAddrIPNS0_7RefNodeEEEEE(ptr noundef nonnull align 8 dereferenceable(48) %0, ptr noundef nonnull align 8 dereferenceable(16) %1) #0 {
  %3 = alloca ptr, align 8
  %4 = alloca ptr, align 8
  %5 = alloca %"struct.llvm::rdf::PrintNode", align 8
  %6 = alloca %"struct.llvm::rdf::NodeAddr.65", align 8
  %7 = alloca %"struct.llvm::rdf::PrintNode.74", align 8
  %8 = alloca %"struct.llvm::rdf::NodeAddr.71", align 8
  %9 = alloca %"struct.llvm::rdf::PrintNode.75", align 8
  %10 = alloca %"struct.llvm::rdf::NodeAddr.68", align 8
  store ptr %0, ptr %3, align 8
  store ptr %1, ptr %4, align 8
  %11 = load ptr, ptr %4, align 8
  %12 = getelementptr inbounds nuw %"struct.llvm::rdf::Print.73", ptr %11, i32 0, i32 0
  %13 = load ptr, ptr %12, align 8
  %14 = getelementptr inbounds nuw %"struct.llvm::rdf::NodeAddr.62", ptr %13, i32 0, i32 0
  %15 = load ptr, ptr %14, align 8
  %16 = call noundef zeroext i16 @_ZNK4llvm3rdf8NodeBase7getKindEv(ptr noundef nonnull align 8 dereferenceable(32) %15)
  %17 = zext i16 %16 to i32
  switch i32 %17, label %56 [
    i32 4, label %18
    i32 8, label %27
  ]

18:                                               ; preds = %2
  %19 = load ptr, ptr %3, align 8
  %20 = load ptr, ptr %4, align 8
  %21 = getelementptr inbounds nuw %"struct.llvm::rdf::Print.73", ptr %20, i32 0, i32 0
  %22 = load ptr, ptr %21, align 8
  call void @_ZN4llvm3rdf8NodeAddrIPNS0_7DefNodeEEC2IPNS0_7RefNodeEEERKNS1_IT_EE(ptr noundef nonnull align 8 dereferenceable(12) %6, ptr noundef nonnull align 8 dereferenceable(12) %22)
  %23 = load ptr, ptr %4, align 8
  %24 = getelementptr inbounds nuw %"struct.llvm::rdf::Print.73", ptr %23, i32 0, i32 1
  %25 = load ptr, ptr %24, align 8
  call void @_ZN4llvm3rdf9PrintNodeIPNS0_7DefNodeEEC2ERKNS0_8NodeAddrIS3_EERKNS0_13DataFlowGraphE(ptr noundef nonnull align 8 dereferenceable(16) %5, ptr noundef nonnull align 8 dereferenceable(12) %6, ptr noundef nonnull align 8 dereferenceable(736) %25)
  %26 = call noundef nonnull align 8 dereferenceable(48) ptr @_ZN4llvm3rdflsERNS_11raw_ostreamERKNS0_5PrintINS0_8NodeAddrIPNS0_7DefNodeEEEEE(ptr noundef nonnull align 8 dereferenceable(48) %19, ptr noundef nonnull align 8 dereferenceable(16) %5)
  br label %56

27:                                               ; preds = %2
  %28 = load ptr, ptr %4, align 8
  %29 = getelementptr inbounds nuw %"struct.llvm::rdf::Print.73", ptr %28, i32 0, i32 0
  %30 = load ptr, ptr %29, align 8
  %31 = getelementptr inbounds nuw %"struct.llvm::rdf::NodeAddr.62", ptr %30, i32 0, i32 0
  %32 = load ptr, ptr %31, align 8
  %33 = call noundef zeroext i16 @_ZNK4llvm3rdf8NodeBase8getFlagsEv(ptr noundef nonnull align 8 dereferenceable(32) %32)
  %34 = zext i16 %33 to i32
  %35 = and i32 %34, 128
  %36 = icmp ne i32 %35, 0
  br i1 %36, label %37, label %46

37:                                               ; preds = %27
  %38 = load ptr, ptr %3, align 8
  %39 = load ptr, ptr %4, align 8
  %40 = getelementptr inbounds nuw %"struct.llvm::rdf::Print.73", ptr %39, i32 0, i32 0
  %41 = load ptr, ptr %40, align 8
  call void @_ZN4llvm3rdf8NodeAddrIPNS0_10PhiUseNodeEEC2IPNS0_7RefNodeEEERKNS1_IT_EE(ptr noundef nonnull align 8 dereferenceable(12) %8, ptr noundef nonnull align 8 dereferenceable(12) %41)
  %42 = load ptr, ptr %4, align 8
  %43 = getelementptr inbounds nuw %"struct.llvm::rdf::Print.73", ptr %42, i32 0, i32 1
  %44 = load ptr, ptr %43, align 8
  call void @_ZN4llvm3rdf9PrintNodeIPNS0_10PhiUseNodeEEC2ERKNS0_8NodeAddrIS3_EERKNS0_13DataFlowGraphE(ptr noundef nonnull align 8 dereferenceable(16) %7, ptr noundef nonnull align 8 dereferenceable(12) %8, ptr noundef nonnull align 8 dereferenceable(736) %44)
  %45 = call noundef nonnull align 8 dereferenceable(48) ptr @_ZN4llvm3rdflsERNS_11raw_ostreamERKNS0_5PrintINS0_8NodeAddrIPNS0_10PhiUseNodeEEEEE(ptr noundef nonnull align 8 dereferenceable(48) %38, ptr noundef nonnull align 8 dereferenceable(16) %7)
  br label %55

46:                                               ; preds = %27
  %47 = load ptr, ptr %3, align 8
  %48 = load ptr, ptr %4, align 8
  %49 = getelementptr inbounds nuw %"struct.llvm::rdf::Print.73", ptr %48, i32 0, i32 0
  %50 = load ptr, ptr %49, align 8
  call void @_ZN4llvm3rdf8NodeAddrIPNS0_7UseNodeEEC2IPNS0_7RefNodeEEERKNS1_IT_EE(ptr noundef nonnull align 8 dereferenceable(12) %10, ptr noundef nonnull align 8 dereferenceable(12) %50)
  %51 = load ptr, ptr %4, align 8
  %52 = getelementptr inbounds nuw %"struct.llvm::rdf::Print.73", ptr %51, i32 0, i32 1
  %53 = load ptr, ptr %52, align 8
  call void @_ZN4llvm3rdf9PrintNodeIPNS0_7UseNodeEEC2ERKNS0_8NodeAddrIS3_EERKNS0_13DataFlowGraphE(ptr noundef nonnull align 8 dereferenceable(16) %9, ptr noundef nonnull align 8 dereferenceable(12) %10, ptr noundef nonnull align 8 dereferenceable(736) %53)
  %54 = call noundef nonnull align 8 dereferenceable(48) ptr @_ZN4llvm3rdflsERNS_11raw_ostreamERKNS0_5PrintINS0_8NodeAddrIPNS0_7UseNodeEEEEE(ptr noundef nonnull align 8 dereferenceable(48) %47, ptr noundef nonnull align 8 dereferenceable(16) %9)
  br label %55

55:                                               ; preds = %46, %37
  br label %56

56:                                               ; preds = %55, %18, %2
  %57 = load ptr, ptr %3, align 8
  ret ptr %57
}