; Function Attrs: mustprogress nounwind uwtable
define dso_local noundef nonnull align 8 dereferenceable(48) ptr @_ZN4llvm3rdflsERNS_11raw_ostreamERKNS0_5PrintINS0_8NodeAddrIPNS0_7RefNodeEEEEE(ptr noundef nonnull returned align 8 dereferenceable(48) %0, ptr noundef nonnull readonly align 8 captures(none) dereferenceable(16) %1) local_unnamed_addr #0 {
  %3 = alloca %"struct.llvm::rdf::PrintNode", align 8
  %4 = alloca %"struct.llvm::rdf::NodeAddr.65", align 8
  %5 = alloca %"struct.llvm::rdf::PrintNode.74", align 8
  %6 = alloca %"struct.llvm::rdf::NodeAddr.71", align 8
  %7 = alloca %"struct.llvm::rdf::PrintNode.75", align 8
  %8 = alloca %"struct.llvm::rdf::NodeAddr.68", align 8
  %9 = load ptr, ptr %1, align 8
  %10 = load ptr, ptr %9, align 8
  %11 = load i16, ptr %10, align 8
  %12 = and i16 %11, 28
  switch i16 %12, label %37 [
    i16 4, label %13
    i16 8, label %21
  ]

13:                                               ; preds = %2
  store ptr %10, ptr %4, align 8
  %14 = getelementptr inbounds nuw i8, ptr %4, i64 8
  %15 = getelementptr inbounds nuw i8, ptr %9, i64 8
  %16 = load i32, ptr %15, align 8
  store i32 %16, ptr %14, align 8
  %17 = getelementptr inbounds nuw i8, ptr %1, i64 8
  %18 = load ptr, ptr %17, align 8
  store ptr %4, ptr %3, align 8
  %19 = getelementptr inbounds nuw i8, ptr %3, i64 8
  store ptr %18, ptr %19, align 8
  %20 = call noundef nonnull align 8 dereferenceable(48) ptr @_ZN4llvm3rdflsERNS_11raw_ostreamERKNS0_5PrintINS0_8NodeAddrIPNS0_7DefNodeEEEEE(ptr noundef nonnull align 8 dereferenceable(48) %0, ptr noundef nonnull align 8 dereferenceable(16) %3)
  br label %37

21:                                               ; preds = %2
  %22 = and i16 %11, 128
  %.not = icmp eq i16 %22, 0
  %23 = getelementptr inbounds nuw i8, ptr %9, i64 8
  %24 = getelementptr inbounds nuw i8, ptr %1, i64 8
  br i1 %.not, label %31, label %25

25:                                               ; preds = %21
  store ptr %10, ptr %6, align 8
  %26 = getelementptr inbounds nuw i8, ptr %6, i64 8
  %27 = load i32, ptr %23, align 8
  store i32 %27, ptr %26, align 8
  %28 = load ptr, ptr %24, align 8
  store ptr %6, ptr %5, align 8
  %29 = getelementptr inbounds nuw i8, ptr %5, i64 8
  store ptr %28, ptr %29, align 8
  %30 = call noundef nonnull align 8 dereferenceable(48) ptr @_ZN4llvm3rdflsERNS_11raw_ostreamERKNS0_5PrintINS0_8NodeAddrIPNS0_10PhiUseNodeEEEEE(ptr noundef nonnull align 8 dereferenceable(48) %0, ptr noundef nonnull align 8 dereferenceable(16) %5)
  br label %37

31:                                               ; preds = %21
  store ptr %10, ptr %8, align 8
  %32 = getelementptr inbounds nuw i8, ptr %8, i64 8
  %33 = load i32, ptr %23, align 8
  store i32 %33, ptr %32, align 8
  %34 = load ptr, ptr %24, align 8
  store ptr %8, ptr %7, align 8
  %35 = getelementptr inbounds nuw i8, ptr %7, i64 8
  store ptr %34, ptr %35, align 8
  %36 = call noundef nonnull align 8 dereferenceable(48) ptr @_ZN4llvm3rdflsERNS_11raw_ostreamERKNS0_5PrintINS0_8NodeAddrIPNS0_7UseNodeEEEEE(ptr noundef nonnull align 8 dereferenceable(48) %0, ptr noundef nonnull align 8 dereferenceable(16) %7)
  br label %37

37:                                               ; preds = %25, %31, %13, %2
  ret ptr %0
}